; Function Attrs: mustprogress uwtable
define hidden noundef zeroext i1 @_ZNK4cvc58internal9TrustNode6isNullEv(ptr noundef nonnull readonly align 8 captures(none) dereferenceable(24) %0) local_unnamed_addr #4 align 2 personality ptr @__gxx_personality_v0 {
  %2 = getelementptr inbounds nuw i8, ptr %0, i64 8
  %3 = load ptr, ptr %2, align 8, !tbaa !3
  %4 = load atomic i8, ptr @_ZGVZN4cvc58internal4expr9NodeValue4nullEvE6s_null acquire, align 8
  %5 = icmp eq i8 %4, 0
  br i1 %5, label %6, label %_ZNK4cvc58internal12NodeTemplateILb1EE6isNullEv.exit, !prof !68

6:                                                ; preds = %1
  %7 = tail call i32 @__cxa_guard_acquire(ptr nonnull @_ZGVZN4cvc58internal4expr9NodeValue4nullEvE6s_null) #17
  %.not.i.i = icmp eq i32 %7, 0
  br i1 %.not.i.i, label %_ZNK4cvc58internal12NodeTemplateILb1EE6isNullEv.exit, label %8

8:                                                ; preds = %6
  %9 = invoke noalias noundef nonnull dereferenceable(24) ptr @_Znwm(i64 noundef 24) #19
          to label %10 unwind label %12

10:                                               ; preds = %8
  store i64 1152920405095219200, ptr %9, align 8
  %11 = getelementptr inbounds nuw i8, ptr %9, i64 8
  tail call void @llvm.memset.p0.i64(ptr noundef nonnull align 8 dereferenceable(16) %11, i8 0, i64 16, i1 false)
  store ptr %9, ptr @_ZZN4cvc58internal4expr9NodeValue4nullEvE6s_null, align 8, !tbaa !64
  tail call void @__cxa_guard_release(ptr nonnull @_ZGVZN4cvc58internal4expr9NodeValue4nullEvE6s_null) #17
  br label %_ZNK4cvc58internal12NodeTemplateILb1EE6isNullEv.exit

12:                                               ; preds = %8
  %13 = landingpad { ptr, i32 }
          cleanup
  tail call void @__cxa_guard_abort(ptr nonnull @_ZGVZN4cvc58internal4expr9NodeValue4nullEvE6s_null) #17
  resume { ptr, i32 } %13

_ZNK4cvc58internal12NodeTemplateILb1EE6isNullEv.exit: ; preds = %1, %6, %10
  %14 = load ptr, ptr @_ZZN4cvc58internal4expr9NodeValue4nullEvE6s_null, align 8, !tbaa !64
  %15 = icmp eq ptr %3, %14
  ret i1 %15
}